target datalayout = "e-m:e-p270:32:32-p271:32:32-p272:64:64-i64:64-i128:128-f80:128-n8:16:32:64-S128"
target triple = "x86_64-pc-linux-gnu"

; Function Attrs: nounwind uwtable
define hidden i32 @BN_mod_lshift1_quick(ptr noundef %0, ptr noundef %1, ptr noundef %2) #0 {
  %4 = alloca i32, align 4
  %5 = alloca ptr, align 8
  %6 = alloca ptr, align 8
  %7 = alloca ptr, align 8
  store ptr %0, ptr %5, align 8, !tbaa !6
  store ptr %1, ptr %6, align 8, !tbaa !6
  store ptr %2, ptr %7, align 8, !tbaa !6
  %8 = load ptr, ptr %5, align 8, !tbaa !6
  %9 = load ptr, ptr %6, align 8, !tbaa !6
  %10 = call i32 @BN_lshift1(ptr noundef %8, ptr noundef %9)
  %11 = icmp ne i32 %10, 0
  br i1 %11, label %13, label %12

12:                                               ; preds = %3
  store i32 0, ptr %4, align 4
  br label %24

13:                                               ; preds = %3
  %14 = load ptr, ptr %5, align 8, !tbaa !6
  %15 = load ptr, ptr %7, align 8, !tbaa !6
  %16 = call i32 @BN_cmp(ptr noundef %14, ptr noundef %15)
  %17 = icmp sge i32 %16, 0
  br i1 %17, label %18, label %23

18:                                               ; preds = %13
  %19 = load ptr, ptr %5, align 8, !tbaa !6
  %20 = load ptr, ptr %5, align 8, !tbaa !6
  %21 = load ptr, ptr %7, align 8, !tbaa !6
  %22 = call i32 @BN_sub(ptr noundef %19, ptr noundef %20, ptr noundef %21)
  store i32 %22, ptr %4, align 4
  br label %24

23:                                               ; preds = %13
  store i32 1, ptr %4, align 4
  br label %24

24:                                               ; preds = %23, %18, %12
  %25 = load i32, ptr %4, align 4
  ret i32 %25
}